; Function Attrs: null_pointer_is_valid sspstrong uwtable
define internal zeroext i1 @test_someip(ptr readnone captures(none) %0, ptr noundef %1, i32 %2, ptr readnone captures(none) %3) #0 {
  %5 = tail call i32 @tvb_captured_length(ptr noundef %1)
  %6 = icmp ult i32 %5, 16
  br i1 %6, label %17, label %7

7:                                                ; preds = %4
  %8 = tail call i32 @tvb_get_uint32(ptr noundef %1, i32 noundef 4, i32 noundef 0)
  %9 = icmp ult i32 %8, 8
  br i1 %9, label %17, label %10

10:                                               ; preds = %7
  %11 = tail call zeroext i8 @tvb_get_uint8(ptr noundef %1, i32 noundef 12)
  %.not = icmp eq i8 %11, 1
  br i1 %.not, label %12, label %17

12:                                               ; preds = %10
  %13 = tail call zeroext i8 @tvb_get_uint8(ptr noundef %1, i32 noundef 14)
  %14 = and i8 %13, -33
  %15 = zext i8 %14 to i32
  %16 = tail call ptr @try_val_to_str(i32 noundef %15, ptr noundef nonnull @someip_msg_type)
  %.not5 = icmp ne ptr %16, null
  br label %17

17:                                               ; preds = %12, %10, %7, %4
  %.0 = phi i1 [ false, %4 ], [ false, %7 ], [ false, %10 ], [ %.not5, %12 ]
  ret i1 %.0
}